; Function Attrs: nounwind uwtable
define internal fastcc void @dissect_fcfcs_gplnl(ptr noundef %0, ptr noundef %1, i32 noundef range(i32 0, 2) %2) unnamed_addr #0 {
  %4 = alloca i32, align 4
  %.not = icmp eq ptr %1, null
  br i1 %.not, label %.loopexit, label %5

5:                                                ; preds = %3
  %.not23 = icmp eq i32 %2, 0
  br i1 %.not23, label %13, label %6

6:                                                ; preds = %5
  %7 = tail call zeroext i8 @tvb_get_guint8(ptr noundef %0, i32 noundef 16) #4
  %8 = zext i8 %7 to i32
  %9 = load i32, ptr @hf_fcs_platformname_len, align 4
  %10 = tail call ptr @proto_tree_add_uint(ptr noundef nonnull %1, i32 noundef %9, ptr noundef %0, i32 noundef 16, i32 noundef 1, i32 noundef %8) #4
  %11 = load i32, ptr @hf_fcs_platformname, align 4
  %12 = tail call ptr @proto_tree_add_item(ptr noundef nonnull %1, i32 noundef %11, ptr noundef %0, i32 noundef 17, i32 noundef %8, i32 noundef 0) #4
  br label %.loopexit

13:                                               ; preds = %5
  %14 = load i32, ptr @hf_fcfcs_num_platform_node_name_entries, align 4
  %15 = call ptr @proto_tree_add_item_ret_uint(ptr noundef nonnull %1, i32 noundef %14, ptr noundef %0, i32 noundef 16, i32 noundef 4, i32 noundef 0, ptr noundef nonnull %4) #4
  %16 = load i32, ptr %4, align 4
  %.not26 = icmp eq i32 %16, 0
  br i1 %.not26, label %.loopexit, label %.lr.ph

.lr.ph:                                           ; preds = %13, %.lr.ph
  %.025 = phi i32 [ %19, %.lr.ph ], [ 20, %13 ]
  %.02124 = phi i32 [ %20, %.lr.ph ], [ 0, %13 ]
  %17 = load i32, ptr @hf_fcs_platformnname, align 4
  %18 = call ptr @proto_tree_add_item(ptr noundef nonnull %1, i32 noundef %17, ptr noundef %0, i32 noundef %.025, i32 noundef 8, i32 noundef 0) #4
  %19 = add i32 %.025, 8
  %20 = add nuw i32 %.02124, 1
  %21 = load i32, ptr %4, align 4
  %22 = icmp ult i32 %20, %21
  br i1 %22, label %.lr.ph, label %.loopexit, !llvm.loop !10

.loopexit:                                        ; preds = %.lr.ph, %13, %6, %3
  ret void
}